; Function Attrs: nounwind uwtable
define ptr @l_Lake_GitRepo_resolveRemoteRevision(ptr noundef %0, ptr noundef %1, ptr noundef %2, ptr noundef %3, ptr noundef %4) local_unnamed_addr #0 {
  %6 = getelementptr i8, ptr %0, i64 24
  %.val17.i = load i64, ptr %6, align 8, !tbaa !4
  %.mask.i = and i64 %.val17.i, 9223372036854775807
  %.not.i19 = icmp eq i64 %.mask.i, 40
  br i1 %.not.i19, label %l_Lake_Git_isFullObjectName.exit, label %l_Lake_Git_isFullObjectName.exit.thread

l_Lake_Git_isFullObjectName.exit:                 ; preds = %5
  %7 = getelementptr i8, ptr %0, i64 8
  %.val.i = load i64, ptr %7, align 8, !tbaa !4
  %8 = shl i64 %.val.i, 1
  %9 = add i64 %8, -1
  %10 = inttoptr i64 %9 to ptr
  %11 = tail call zeroext i8 @l_String_anyAux___at_Lake_Git_isFullObjectName___spec__1(ptr noundef nonnull %0, ptr noundef nonnull %10, ptr noundef nonnull inttoptr (i64 1 to ptr))
  %.not = icmp eq i8 %11, 0
  br i1 %.not, label %13, label %l_Lake_Git_isFullObjectName.exit.thread

l_Lake_Git_isFullObjectName.exit.thread:          ; preds = %5, %l_Lake_Git_isFullObjectName.exit
  %12 = tail call ptr @l_Lake_GitRepo_resolveRemoteRevision___lambda__3(ptr noundef %1, ptr noundef nonnull %0, ptr noundef %2, ptr nonnull poison, ptr noundef %3, ptr noundef %4)
  br label %35

13:                                               ; preds = %l_Lake_Git_isFullObjectName.exit
  %14 = ptrtoint ptr %2 to i64
  %15 = and i64 %14, 1
  %.not22 = icmp eq i64 %15, 0
  br i1 %.not22, label %16, label %lean_dec.exit

16:                                               ; preds = %13
  %17 = load i32, ptr %2, align 4, !tbaa !8
  %18 = icmp sgt i32 %17, 1
  br i1 %18, label %19, label %21, !prof !11

19:                                               ; preds = %16
  %20 = add nsw i32 %17, -1
  store i32 %20, ptr %2, align 4, !tbaa !8
  br label %lean_dec.exit

21:                                               ; preds = %16
  %.not.i = icmp eq i32 %17, 0
  br i1 %.not.i, label %lean_dec.exit, label %22

22:                                               ; preds = %21
  tail call void @lean_dec_ref_cold(ptr noundef nonnull %2) #3
  br label %lean_dec.exit

lean_dec.exit:                                    ; preds = %22, %21, %19, %13
  tail call void @lean_inc_heartbeat() #3
  %23 = tail call noalias ptr @mi_malloc_small(i64 noundef 24) #3
  %24 = icmp eq ptr %23, null
  br i1 %24, label %25, label %lean_alloc_ctor.exit

25:                                               ; preds = %lean_dec.exit
  tail call void @lean_internal_panic_out_of_memory() #4
  unreachable

lean_alloc_ctor.exit:                             ; preds = %lean_dec.exit
  %26 = getelementptr inbounds nuw i8, ptr %23, i64 4
  store i32 1, ptr %23, align 4, !tbaa !8
  store i32 131096, ptr %26, align 4
  %27 = getelementptr inbounds nuw i8, ptr %23, i64 8
  store ptr %0, ptr %27, align 8, !tbaa !12
  %28 = getelementptr inbounds nuw i8, ptr %23, i64 16
  store ptr %3, ptr %28, align 8, !tbaa !12
  tail call void @lean_inc_heartbeat() #3
  %29 = tail call noalias ptr @mi_malloc_small(i64 noundef 24) #3
  %30 = icmp eq ptr %29, null
  br i1 %30, label %31, label %lean_alloc_ctor.exit20

31:                                               ; preds = %lean_alloc_ctor.exit
  tail call void @lean_internal_panic_out_of_memory() #4
  unreachable

lean_alloc_ctor.exit20:                           ; preds = %lean_alloc_ctor.exit
  %32 = getelementptr inbounds nuw i8, ptr %29, i64 4
  store i32 1, ptr %29, align 4, !tbaa !8
  store i32 131096, ptr %32, align 4
  %33 = getelementptr inbounds nuw i8, ptr %29, i64 8
  store ptr %23, ptr %33, align 8, !tbaa !12
  %34 = getelementptr inbounds nuw i8, ptr %29, i64 16
  store ptr %4, ptr %34, align 8, !tbaa !12
  br label %35

35:                                               ; preds = %lean_alloc_ctor.exit20, %l_Lake_Git_isFullObjectName.exit.thread
  %.0 = phi ptr [ %12, %l_Lake_Git_isFullObjectName.exit.thread ], [ %29, %lean_alloc_ctor.exit20 ]
  ret ptr %.0
}